target datalayout = "e-m:e-p270:32:32-p271:32:32-p272:64:64-i64:64-i128:128-f80:128-n8:16:32:64-S128"
target triple = "x86_64-pc-linux-gnu"

%struct.H5FL_reg_head_t = type { i8, i32, i32, ptr, i64, ptr }
%struct.H5FL_seq_head_t = type { %struct.H5FL_blk_head_t, i64 }
%struct.H5FL_blk_head_t = type { i8, i32, i32, i64, ptr, ptr }
%struct.H5FS_t = type { %struct.H5C_cache_entry_t, i64, i64, i64, i64, i32, i16, i32, i32, i32, i64, i64, i64, i64, i32, i64, i64, ptr, i8, i32, i8, i8, i32, i64, i64, i64, ptr }
%struct.H5C_cache_entry_t = type { ptr, i64, i64, ptr, i8, ptr, i8, i8, i8, i8, i32, i8, i8, i8, i8, i8, i32, ptr, i32, i32, i32, i32, i32, i8, i8, ptr, ptr, ptr, ptr, ptr, ptr, i8, i32, i8, i64, ptr, i64, i64, i32, i8, i32, i32, i8, ptr, ptr, ptr }
%struct.H5FS_sinfo_t = type { %struct.H5C_cache_entry_t, ptr, i8, i32, i64, i64, i64, i64, i32, i32, i32, ptr, ptr }

@H5_H5FS_bin_t_seq_free_list = global %struct.H5FL_seq_head_t { %struct.H5FL_blk_head_t { i8 0, i32 0, i32 0, i64 0, ptr @.str.1, ptr null }, i64 32 }, align 8
@H5_H5FS_sinfo_t_reg_free_list = global %struct.H5FL_reg_head_t { i8 0, i32 0, i32 0, ptr @.str.2, i64 328, ptr null }, align 8
@.str.3 = private unnamed_addr constant [105 x i8] c"generated/home/dtcxzyw/WorkSpace/Projects/compilers/llvm-opt-benchmark/bench/hdf5/hdf5/src/H5FSsection.c\00", align 1
@__func__.H5FS__sinfo_new = private unnamed_addr constant [16 x i8] c"H5FS__sinfo_new\00", align 1
@H5E_RESOURCE_g = external global i64, align 8
@H5E_NOSPACE_g = external global i64, align 8
@.str.4 = private unnamed_addr constant [25 x i8] c"memory allocation failed\00", align 1
@.str.5 = private unnamed_addr constant [58 x i8] c"memory allocation failed for free space section bin array\00", align 1
@H5E_FSPACE_g = external global i64, align 8
@H5E_CANTINC_g = external global i64, align 8
@.str.6 = private unnamed_addr constant [52 x i8] c"unable to increment ref. count on free space header\00", align 1

; Function Attrs: nounwind uwtable
define internal i32 @H5VM_limit_enc_size(i64 noundef %0) #0 {
  %2 = alloca i64, align 8
  store i64 %0, ptr %2, align 8
  %3 = load i64, ptr %2, align 8
  %4 = call i32 @H5VM_log2_gen(i64 noundef %3)
  %5 = udiv i32 %4, 8
  %6 = add i32 %5, 1
  ret i32 %6
}

; Function Attrs: nounwind uwtable
define internal i32 @H5VM_log2_gen(i64 noundef %0) #0 {
  %2 = alloca i64, align 8
  %3 = alloca i32, align 4
  %4 = alloca i32, align 4
  %5 = alloca i32, align 4
  %6 = alloca i32, align 4
  store i64 %0, ptr %2, align 8
  %7 = load i64, ptr %2, align 8
  %8 = lshr i64 %7, 32
  %9 = trunc i64 %8 to i32
  store i32 %9, ptr %6, align 4
  %10 = icmp ne i32 %9, 0
  br i1 %10, label %11, label %61

11:                                               ; preds = %1
  %12 = load i64, ptr %2, align 8
  %13 = lshr i64 %12, 48
  %14 = trunc i64 %13 to i32
  store i32 %14, ptr %5, align 4
  %15 = icmp ne i32 %14, 0
  br i1 %15, label %16, label %38

16:                                               ; preds = %11
  %17 = load i64, ptr %2, align 8
  %18 = lshr i64 %17, 56
  %19 = trunc i64 %18 to i32
  store i32 %19, ptr %4, align 4
  %20 = icmp ne i32 %19, 0
  br i1 %20, label %21, label %28

21:                                               ; preds = %16
  %22 = load i32, ptr %4, align 4
  %23 = zext i32 %22 to i64
  %24 = getelementptr inbounds [256 x i8], ptr @LogTable256, i64 0, i64 %23
  %25 = load i8, ptr %24, align 1
  %26 = zext i8 %25 to i32
  %27 = add i32 56, %26
  br label %36

28:                                               ; preds = %16
  %29 = load i32, ptr %5, align 4
  %30 = and i32 %29, 255
  %31 = zext i32 %30 to i64
  %32 = getelementptr inbounds [256 x i8], ptr @LogTable256, i64 0, i64 %31
  %33 = load i8, ptr %32, align 1
  %34 = zext i8 %33 to i32
  %35 = add i32 48, %34
  br label %36

36:                                               ; preds = %28, %21
  %37 = phi i32 [ %27, %21 ], [ %35, %28 ]
  store i32 %37, ptr %3, align 4
  br label %60

38:                                               ; preds = %11
  %39 = load i64, ptr %2, align 8
  %40 = lshr i64 %39, 40
  %41 = trunc i64 %40 to i32
  store i32 %41, ptr %4, align 4
  %42 = icmp ne i32 %41, 0
  br i1 %42, label %43, label %50

43:                                               ; preds = %38
  %44 = load i32, ptr %4, align 4
  %45 = zext i32 %44 to i64
  %46 = getelementptr inbounds [256 x i8], ptr @LogTable256, i64 0, i64 %45
  %47 = load i8, ptr %46, align 1
  %48 = zext i8 %47 to i32
  %49 = add i32 40, %48
  br label %58

50:                                               ; preds = %38
  %51 = load i32, ptr %6, align 4
  %52 = and i32 %51, 255
  %53 = zext i32 %52 to i64
  %54 = getelementptr inbounds [256 x i8], ptr @LogTable256, i64 0, i64 %53
  %55 = load i8, ptr %54, align 1
  %56 = zext i8 %55 to i32
  %57 = add i32 32, %56
  br label %58

58:                                               ; preds = %50, %43
  %59 = phi i32 [ %49, %43 ], [ %57, %50 ]
  store i32 %59, ptr %3, align 4
  br label %60

60:                                               ; preds = %58, %36
  br label %110

61:                                               ; preds = %1
  %62 = load i64, ptr %2, align 8
  %63 = lshr i64 %62, 16
  %64 = trunc i64 %63 to i32
  store i32 %64, ptr %5, align 4
  %65 = icmp ne i32 %64, 0
  br i1 %65, label %66, label %88

66:                                               ; preds = %61
  %67 = load i64, ptr %2, align 8
  %68 = lshr i64 %67, 24
  %69 = trunc i64 %68 to i32
  store i32 %69, ptr %4, align 4
  %70 = icmp ne i32 %69, 0
  br i1 %70, label %71, label %78

71:                                               ; preds = %66
  %72 = load i32, ptr %4, align 4
  %73 = zext i32 %72 to i64
  %74 = getelementptr inbounds [256 x i8], ptr @LogTable256, i64 0, i64 %73
  %75 = load i8, ptr %74, align 1
  %76 = zext i8 %75 to i32
  %77 = add i32 24, %76
  br label %86

78:                                               ; preds = %66
  %79 = load i32, ptr %5, align 4
  %80 = and i32 %79, 255
  %81 = zext i32 %80 to i64
  %82 = getelementptr inbounds [256 x i8], ptr @LogTable256, i64 0, i64 %81
  %83 = load i8, ptr %82, align 1
  %84 = zext i8 %83 to i32
  %85 = add i32 16, %84
  br label %86

86:                                               ; preds = %78, %71
  %87 = phi i32 [ %77, %71 ], [ %85, %78 ]
  store i32 %87, ptr %3, align 4
  br label %109

88:                                               ; preds = %61
  %89 = load i64, ptr %2, align 8
  %90 = lshr i64 %89, 8
  %91 = trunc i64 %90 to i32
  store i32 %91, ptr %4, align 4
  %92 = icmp ne i32 %91, 0
  br i1 %92, label %93, label %100

93:                                               ; preds = %88
  %94 = load i32, ptr %4, align 4
  %95 = zext i32 %94 to i64
  %96 = getelementptr inbounds [256 x i8], ptr @LogTable256, i64 0, i64 %95
  %97 = load i8, ptr %96, align 1
  %98 = zext i8 %97 to i32
  %99 = add i32 8, %98
  br label %107

100:                                              ; preds = %88
  %101 = load i64, ptr %2, align 8
  %102 = trunc i64 %101 to i8
  %103 = zext i8 %102 to i64
  %104 = getelementptr inbounds [256 x i8], ptr @LogTable256, i64 0, i64 %103
  %105 = load i8, ptr %104, align 1
  %106 = zext i8 %105 to i32
  br label %107

107:                                              ; preds = %100, %93
  %108 = phi i32 [ %99, %93 ], [ %106, %100 ]
  store i32 %108, ptr %3, align 4
  br label %109

109:                                              ; preds = %107, %86
  br label %110

110:                                              ; preds = %109, %60
  %111 = load i32, ptr %3, align 4
  ret i32 %111
}

; Function Attrs: nounwind uwtable
define ptr @H5FS__sinfo_new(ptr noundef %0, ptr noundef %1) #0 {
  %3 = alloca ptr, align 8
  %4 = alloca ptr, align 8
  %5 = alloca ptr, align 8
  %6 = alloca ptr, align 8
  %7 = alloca i8, align 1
  store ptr %0, ptr %3, align 8
  store ptr %1, ptr %4, align 8
  store ptr null, ptr %5, align 8
  store ptr null, ptr %6, align 8
  store i8 0, ptr %7, align 1
  %8 = call noalias ptr @H5FL_reg_calloc(ptr noundef @H5_H5FS_sinfo_t_reg_free_list)
  store ptr %8, ptr %5, align 8
  %9 = icmp eq ptr null, %8
  br i1 %9, label %10, label %25

10:                                               ; preds = %2
  br label %11

11:                                               ; preds = %10
  br label %12

12:                                               ; preds = %11
  br label %13

13:                                               ; preds = %12
  %14 = load i64, ptr @H5E_RESOURCE_g, align 8
  %15 = load i64, ptr @H5E_NOSPACE_g, align 8
  %16 = call i32 (ptr, ptr, i32, i64, i64, ptr, ...) @H5E_printf_stack(ptr noundef @.str.3, ptr noundef @__func__.H5FS__sinfo_new, i32 noundef 126, i64 noundef %14, i64 noundef %15, ptr noundef @.str.4)
  br label %17

17:                                               ; preds = %13
  store i8 1, ptr %7, align 1
  %18 = load i8, ptr %7, align 1
  %19 = trunc i8 %18 to i1
  %20 = zext i1 %19 to i8
  store i8 %20, ptr %7, align 1
  br label %21

21:                                               ; preds = %17
  br label %22

22:                                               ; preds = %21
  store ptr null, ptr %6, align 8
  br label %101

23:                                               ; No predecessors!
  br label %24

24:                                               ; preds = %23
  br label %25

25:                                               ; preds = %24, %2
  %26 = load ptr, ptr %4, align 8
  %27 = getelementptr inbounds %struct.H5FS_t, ptr %26, i32 0, i32 10
  %28 = load i64, ptr %27, align 8
  %29 = call i32 @H5VM_log2_gen(i64 noundef %28)
  %30 = load ptr, ptr %5, align 8
  %31 = getelementptr inbounds %struct.H5FS_sinfo_t, ptr %30, i32 0, i32 3
  store i32 %29, ptr %31, align 4
  %32 = load ptr, ptr %3, align 8
  %33 = call zeroext i8 @H5F_sizeof_addr(ptr noundef %32)
  %34 = zext i8 %33 to i32
  %35 = add i32 9, %34
  %36 = load ptr, ptr %5, align 8
  %37 = getelementptr inbounds %struct.H5FS_sinfo_t, ptr %36, i32 0, i32 8
  store i32 %35, ptr %37, align 8
  %38 = load ptr, ptr %4, align 8
  %39 = getelementptr inbounds %struct.H5FS_t, ptr %38, i32 0, i32 9
  %40 = load i32, ptr %39, align 8
  %41 = add i32 %40, 7
  %42 = udiv i32 %41, 8
  %43 = load ptr, ptr %5, align 8
  %44 = getelementptr inbounds %struct.H5FS_sinfo_t, ptr %43, i32 0, i32 9
  store i32 %42, ptr %44, align 4
  %45 = load ptr, ptr %4, align 8
  %46 = getelementptr inbounds %struct.H5FS_t, ptr %45, i32 0, i32 10
  %47 = load i64, ptr %46, align 8
  %48 = call i32 @H5VM_limit_enc_size(i64 noundef %47)
  %49 = load ptr, ptr %5, align 8
  %50 = getelementptr inbounds %struct.H5FS_sinfo_t, ptr %49, i32 0, i32 10
  store i32 %48, ptr %50, align 8
  %51 = load ptr, ptr %5, align 8
  %52 = getelementptr inbounds %struct.H5FS_sinfo_t, ptr %51, i32 0, i32 3
  %53 = load i32, ptr %52, align 4
  %54 = zext i32 %53 to i64
  %55 = call noalias ptr @H5FL_seq_calloc(ptr noundef @H5_H5FS_bin_t_seq_free_list, i64 noundef %54)
  %56 = load ptr, ptr %5, align 8
  %57 = getelementptr inbounds %struct.H5FS_sinfo_t, ptr %56, i32 0, i32 1
  store ptr %55, ptr %57, align 8
  %58 = icmp eq ptr null, %55
  br i1 %58, label %59, label %74

59:                                               ; preds = %25
  br label %60

60:                                               ; preds = %59
  br label %61

61:                                               ; preds = %60
  br label %62

62:                                               ; preds = %61
  %63 = load i64, ptr @H5E_RESOURCE_g, align 8
  %64 = load i64, ptr @H5E_NOSPACE_g, align 8
  %65 = call i32 (ptr, ptr, i32, i64, i64, ptr, ...) @H5E_printf_stack(ptr noundef @.str.3, ptr noundef @__func__.H5FS__sinfo_new, i32 noundef 144, i64 noundef %63, i64 noundef %64, ptr noundef @.str.5)
  br label %66

66:                                               ; preds = %62
  store i8 1, ptr %7, align 1
  %67 = load i8, ptr %7, align 1
  %68 = trunc i8 %67 to i1
  %69 = zext i1 %68 to i8
  store i8 %69, ptr %7, align 1
  br label %70

70:                                               ; preds = %66
  br label %71

71:                                               ; preds = %70
  store ptr null, ptr %6, align 8
  br label %101

72:                                               ; No predecessors!
  br label %73

73:                                               ; preds = %72
  br label %74

74:                                               ; preds = %73, %25
  %75 = load ptr, ptr %4, align 8
  %76 = call i32 @H5FS__incr(ptr noundef %75)
  %77 = icmp slt i32 %76, 0
  br i1 %77, label %78, label %93

78:                                               ; preds = %74
  br label %79

79:                                               ; preds = %78
  br label %80

80:                                               ; preds = %79
  br label %81

81:                                               ; preds = %80
  %82 = load i64, ptr @H5E_FSPACE_g, align 8
  %83 = load i64, ptr @H5E_CANTINC_g, align 8
  %84 = call i32 (ptr, ptr, i32, i64, i64, ptr, ...) @H5E_printf_stack(ptr noundef @.str.3, ptr noundef @__func__.H5FS__sinfo_new, i32 noundef 148, i64 noundef %82, i64 noundef %83, ptr noundef @.str.6)
  br label %85

85:                                               ; preds = %81
  store i8 1, ptr %7, align 1
  %86 = load i8, ptr %7, align 1
  %87 = trunc i8 %86 to i1
  %88 = zext i1 %87 to i8
  store i8 %88, ptr %7, align 1
  br label %89

89:                                               ; preds = %85
  br label %90

90:                                               ; preds = %89
  store ptr null, ptr %6, align 8
  br label %101

91:                                               ; No predecessors!
  br label %92

92:                                               ; preds = %91
  br label %93

93:                                               ; preds = %92, %74
  %94 = load ptr, ptr %4, align 8
  %95 = load ptr, ptr %5, align 8
  %96 = getelementptr inbounds %struct.H5FS_sinfo_t, ptr %95, i32 0, i32 11
  store ptr %94, ptr %96, align 8
  %97 = load ptr, ptr %5, align 8
  %98 = load ptr, ptr %4, align 8
  %99 = getelementptr inbounds %struct.H5FS_t, ptr %98, i32 0, i32 17
  store ptr %97, ptr %99, align 8
  %100 = load ptr, ptr %5, align 8
  store ptr %100, ptr %6, align 8
  br label %101

101:                                              ; preds = %93, %90, %71, %22
  %102 = load ptr, ptr %6, align 8
  %103 = icmp eq ptr %102, null
  br i1 %103, label %104, label %122

104:                                              ; preds = %101
  %105 = load ptr, ptr %5, align 8
  %106 = icmp ne ptr %105, null
  br i1 %106, label %107, label %122

107:                                              ; preds = %104
  %108 = load ptr, ptr %5, align 8
  %109 = getelementptr inbounds %struct.H5FS_sinfo_t, ptr %108, i32 0, i32 1
  %110 = load ptr, ptr %109, align 8
  %111 = icmp ne ptr %110, null
  br i1 %111, label %112, label %119

112:                                              ; preds = %107
  %113 = load ptr, ptr %5, align 8
  %114 = getelementptr inbounds %struct.H5FS_sinfo_t, ptr %113, i32 0, i32 1
  %115 = load ptr, ptr %114, align 8
  %116 = call ptr @H5FL_seq_free(ptr noundef @H5_H5FS_bin_t_seq_free_list, ptr noundef %115)
  %117 = load ptr, ptr %5, align 8
  %118 = getelementptr inbounds %struct.H5FS_sinfo_t, ptr %117, i32 0, i32 1
  store ptr %116, ptr %118, align 8
  br label %119

119:                                              ; preds = %112, %107
  %120 = load ptr, ptr %5, align 8
  %121 = call ptr @H5FL_reg_free(ptr noundef @H5_H5FS_sinfo_t_reg_free_list, ptr noundef %120)
  store ptr %121, ptr %5, align 8
  br label %122

122:                                              ; preds = %119, %104, %101
  %123 = load ptr, ptr %6, align 8
  ret ptr %123
}