; Function Attrs: nounwind uwtable
define ptr @H5FS__sinfo_new(ptr noundef %0, ptr noundef %1) local_unnamed_addr #0 {
  %3 = tail call noalias ptr @H5FL_reg_calloc(ptr noundef nonnull @H5_H5FS_sinfo_t_reg_free_list) #6
  %4 = icmp eq ptr %3, null
  br i1 %4, label %5, label %9

5:                                                ; preds = %2
  %6 = load i64, ptr @H5E_RESOURCE_g, align 8
  %7 = load i64, ptr @H5E_NOSPACE_g, align 8
  %8 = tail call i32 (ptr, ptr, i32, i64, i64, ptr, ...) @H5E_printf_stack(ptr noundef nonnull @.str.3, ptr noundef nonnull @__func__.H5FS__sinfo_new, i32 noundef 126, i64 noundef %6, i64 noundef %7, ptr noundef nonnull @.str.4) #6
  br label %.thread

9:                                                ; preds = %2
  %10 = getelementptr inbounds i8, ptr %1, i64 304
  %11 = load i64, ptr %10, align 8
  %12 = lshr i64 %11, 32
  %.not.i = icmp ult i64 %11, 4294967296
  br i1 %.not.i, label %41, label %13

13:                                               ; preds = %9
  %14 = lshr i64 %11, 48
  %.not26.i = icmp ult i64 %11, 281474976710656
  br i1 %.not26.i, label %28, label %15

15:                                               ; preds = %13
  %.not28.i = icmp ult i64 %11, 72057594037927936
  br i1 %.not28.i, label %22, label %16

16:                                               ; preds = %15
  %17 = lshr i64 %11, 56
  %18 = getelementptr inbounds [256 x i8], ptr @LogTable256, i64 0, i64 %17
  %19 = load i8, ptr %18, align 1
  %20 = zext i8 %19 to i32
  %21 = add nuw nsw i32 %20, 56
  br label %H5VM_log2_gen.exit

22:                                               ; preds = %15
  %23 = and i64 %14, 255
  %24 = getelementptr inbounds [256 x i8], ptr @LogTable256, i64 0, i64 %23
  %25 = load i8, ptr %24, align 1
  %26 = zext i8 %25 to i32
  %27 = add nuw nsw i32 %26, 48
  br label %H5VM_log2_gen.exit

28:                                               ; preds = %13
  %.not27.i = icmp ult i64 %11, 1099511627776
  br i1 %.not27.i, label %35, label %29

29:                                               ; preds = %28
  %30 = lshr i64 %11, 40
  %31 = getelementptr inbounds [256 x i8], ptr @LogTable256, i64 0, i64 %30
  %32 = load i8, ptr %31, align 1
  %33 = zext i8 %32 to i32
  %34 = add nuw nsw i32 %33, 40
  br label %H5VM_log2_gen.exit

35:                                               ; preds = %28
  %36 = and i64 %12, 255
  %37 = getelementptr inbounds [256 x i8], ptr @LogTable256, i64 0, i64 %36
  %38 = load i8, ptr %37, align 1
  %39 = zext i8 %38 to i32
  %40 = add nuw nsw i32 %39, 32
  br label %H5VM_log2_gen.exit

41:                                               ; preds = %9
  %42 = lshr i64 %11, 16
  %.not23.i = icmp ult i64 %11, 65536
  br i1 %.not23.i, label %56, label %43

43:                                               ; preds = %41
  %.not25.i = icmp ult i64 %11, 16777216
  br i1 %.not25.i, label %50, label %44

44:                                               ; preds = %43
  %45 = lshr i64 %11, 24
  %46 = getelementptr inbounds [256 x i8], ptr @LogTable256, i64 0, i64 %45
  %47 = load i8, ptr %46, align 1
  %48 = zext i8 %47 to i32
  %49 = add nuw nsw i32 %48, 24
  br label %H5VM_log2_gen.exit

50:                                               ; preds = %43
  %51 = and i64 %42, 255
  %52 = getelementptr inbounds [256 x i8], ptr @LogTable256, i64 0, i64 %51
  %53 = load i8, ptr %52, align 1
  %54 = zext i8 %53 to i32
  %55 = add nuw nsw i32 %54, 16
  br label %H5VM_log2_gen.exit

56:                                               ; preds = %41
  %.not24.i = icmp ult i64 %11, 256
  br i1 %.not24.i, label %63, label %57

57:                                               ; preds = %56
  %58 = lshr i64 %11, 8
  %59 = getelementptr inbounds [256 x i8], ptr @LogTable256, i64 0, i64 %58
  %60 = load i8, ptr %59, align 1
  %61 = zext i8 %60 to i32
  %62 = add nuw nsw i32 %61, 8
  br label %H5VM_log2_gen.exit

63:                                               ; preds = %56
  %64 = getelementptr inbounds [256 x i8], ptr @LogTable256, i64 0, i64 %11
  %65 = load i8, ptr %64, align 1
  %66 = zext i8 %65 to i32
  br label %H5VM_log2_gen.exit

H5VM_log2_gen.exit:                               ; preds = %16, %22, %29, %35, %44, %50, %57, %63
  %67 = phi i32 [ %21, %16 ], [ %27, %22 ], [ %34, %29 ], [ %40, %35 ], [ %49, %44 ], [ %55, %50 ], [ %62, %57 ], [ %66, %63 ]
  %68 = getelementptr inbounds i8, ptr %3, i64 260
  store i32 %67, ptr %68, align 4
  %69 = tail call zeroext i8 @H5F_sizeof_addr(ptr noundef %0) #6
  %70 = zext i8 %69 to i32
  %71 = add nuw nsw i32 %70, 9
  %72 = getelementptr inbounds i8, ptr %3, i64 296
  store i32 %71, ptr %72, align 8
  %73 = getelementptr inbounds i8, ptr %1, i64 296
  %74 = load i32, ptr %73, align 8
  %75 = add i32 %74, 7
  %76 = lshr i32 %75, 3
  %77 = getelementptr inbounds i8, ptr %3, i64 300
  store i32 %76, ptr %77, align 4
  %78 = load i64, ptr %10, align 8
  %79 = lshr i64 %78, 32
  %.not.i.i = icmp ult i64 %78, 4294967296
  br i1 %.not.i.i, label %108, label %80

80:                                               ; preds = %H5VM_log2_gen.exit
  %81 = lshr i64 %78, 48
  %.not26.i.i = icmp ult i64 %78, 281474976710656
  br i1 %.not26.i.i, label %95, label %82

82:                                               ; preds = %80
  %.not28.i.i = icmp ult i64 %78, 72057594037927936
  br i1 %.not28.i.i, label %89, label %83

83:                                               ; preds = %82
  %84 = lshr i64 %78, 56
  %85 = getelementptr inbounds [256 x i8], ptr @LogTable256, i64 0, i64 %84
  %86 = load i8, ptr %85, align 1
  %87 = zext i8 %86 to i32
  %88 = add nuw nsw i32 %87, 56
  br label %H5VM_limit_enc_size.exit

89:                                               ; preds = %82
  %90 = and i64 %81, 255
  %91 = getelementptr inbounds [256 x i8], ptr @LogTable256, i64 0, i64 %90
  %92 = load i8, ptr %91, align 1
  %93 = zext i8 %92 to i32
  %94 = add nuw nsw i32 %93, 48
  br label %H5VM_limit_enc_size.exit

95:                                               ; preds = %80
  %.not27.i.i = icmp ult i64 %78, 1099511627776
  br i1 %.not27.i.i, label %102, label %96

96:                                               ; preds = %95
  %97 = lshr i64 %78, 40
  %98 = getelementptr inbounds [256 x i8], ptr @LogTable256, i64 0, i64 %97
  %99 = load i8, ptr %98, align 1
  %100 = zext i8 %99 to i32
  %101 = add nuw nsw i32 %100, 40
  br label %H5VM_limit_enc_size.exit

102:                                              ; preds = %95
  %103 = and i64 %79, 255
  %104 = getelementptr inbounds [256 x i8], ptr @LogTable256, i64 0, i64 %103
  %105 = load i8, ptr %104, align 1
  %106 = zext i8 %105 to i32
  %107 = add nuw nsw i32 %106, 32
  br label %H5VM_limit_enc_size.exit

108:                                              ; preds = %H5VM_log2_gen.exit
  %109 = lshr i64 %78, 16
  %.not23.i.i = icmp ult i64 %78, 65536
  br i1 %.not23.i.i, label %123, label %110

110:                                              ; preds = %108
  %.not25.i.i = icmp ult i64 %78, 16777216
  br i1 %.not25.i.i, label %117, label %111

111:                                              ; preds = %110
  %112 = lshr i64 %78, 24
  %113 = getelementptr inbounds [256 x i8], ptr @LogTable256, i64 0, i64 %112
  %114 = load i8, ptr %113, align 1
  %115 = zext i8 %114 to i32
  %116 = add nuw nsw i32 %115, 24
  br label %H5VM_limit_enc_size.exit

117:                                              ; preds = %110
  %118 = and i64 %109, 255
  %119 = getelementptr inbounds [256 x i8], ptr @LogTable256, i64 0, i64 %118
  %120 = load i8, ptr %119, align 1
  %121 = zext i8 %120 to i32
  %122 = add nuw nsw i32 %121, 16
  br label %H5VM_limit_enc_size.exit

123:                                              ; preds = %108
  %.not24.i.i = icmp ult i64 %78, 256
  br i1 %.not24.i.i, label %130, label %124

124:                                              ; preds = %123
  %125 = lshr i64 %78, 8
  %126 = getelementptr inbounds [256 x i8], ptr @LogTable256, i64 0, i64 %125
  %127 = load i8, ptr %126, align 1
  %128 = zext i8 %127 to i32
  %129 = add nuw nsw i32 %128, 8
  br label %H5VM_limit_enc_size.exit

130:                                              ; preds = %123
  %131 = getelementptr inbounds [256 x i8], ptr @LogTable256, i64 0, i64 %78
  %132 = load i8, ptr %131, align 1
  %133 = zext i8 %132 to i32
  br label %H5VM_limit_enc_size.exit

H5VM_limit_enc_size.exit:                         ; preds = %83, %89, %96, %102, %111, %117, %124, %130
  %.0.i.i = phi i32 [ %88, %83 ], [ %94, %89 ], [ %101, %96 ], [ %107, %102 ], [ %116, %111 ], [ %122, %117 ], [ %129, %124 ], [ %133, %130 ]
  %134 = lshr i32 %.0.i.i, 3
  %135 = add nuw nsw i32 %134, 1
  %136 = getelementptr inbounds i8, ptr %3, i64 304
  store i32 %135, ptr %136, align 8
  %137 = zext nneg i32 %67 to i64
  %138 = tail call noalias ptr @H5FL_seq_calloc(ptr noundef nonnull @H5_H5FS_bin_t_seq_free_list, i64 noundef %137) #6
  %139 = getelementptr inbounds i8, ptr %3, i64 248
  store ptr %138, ptr %139, align 8
  %140 = icmp eq ptr %138, null
  br i1 %140, label %141, label %145

141:                                              ; preds = %H5VM_limit_enc_size.exit
  %142 = load i64, ptr @H5E_RESOURCE_g, align 8
  %143 = load i64, ptr @H5E_NOSPACE_g, align 8
  %144 = tail call i32 (ptr, ptr, i32, i64, i64, ptr, ...) @H5E_printf_stack(ptr noundef nonnull @.str.3, ptr noundef nonnull @__func__.H5FS__sinfo_new, i32 noundef 144, i64 noundef %142, i64 noundef %143, ptr noundef nonnull @.str.5) #6
  br label %155

145:                                              ; preds = %H5VM_limit_enc_size.exit
  %146 = tail call i32 @H5FS__incr(ptr noundef nonnull %1) #6
  %147 = icmp slt i32 %146, 0
  br i1 %147, label %148, label %152

148:                                              ; preds = %145
  %149 = load i64, ptr @H5E_FSPACE_g, align 8
  %150 = load i64, ptr @H5E_CANTINC_g, align 8
  %151 = tail call i32 (ptr, ptr, i32, i64, i64, ptr, ...) @H5E_printf_stack(ptr noundef nonnull @.str.3, ptr noundef nonnull @__func__.H5FS__sinfo_new, i32 noundef 148, i64 noundef %149, i64 noundef %150, ptr noundef nonnull @.str.6) #6
  br label %155

152:                                              ; preds = %145
  %153 = getelementptr inbounds i8, ptr %3, i64 312
  store ptr %1, ptr %153, align 8
  %154 = getelementptr inbounds i8, ptr %1, i64 360
  store ptr %3, ptr %154, align 8
  br label %.thread

155:                                              ; preds = %141, %148
  %156 = load ptr, ptr %139, align 8
  %.not = icmp eq ptr %156, null
  br i1 %.not, label %159, label %157

157:                                              ; preds = %155
  %158 = tail call ptr @H5FL_seq_free(ptr noundef nonnull @H5_H5FS_bin_t_seq_free_list, ptr noundef nonnull %156) #6
  store ptr %158, ptr %139, align 8
  br label %159

159:                                              ; preds = %157, %155
  %160 = tail call ptr @H5FL_reg_free(ptr noundef nonnull @H5_H5FS_sinfo_t_reg_free_list, ptr noundef nonnull %3) #6
  br label %.thread

.thread:                                          ; preds = %5, %152, %159
  %.030 = phi ptr [ null, %159 ], [ %3, %152 ], [ null, %5 ]
  ret ptr %.030
}